; Function Attrs: nounwind uwtable
define void @Wlc_NtkDeleteSim(ptr noundef captures(none) %0) local_unnamed_addr #0 {
  %2 = getelementptr i8, ptr %0, i64 4
  %.val22 = load i32, ptr %2, align 4, !tbaa !3
  %3 = icmp sgt i32 %.val22, 0
  br i1 %3, label %.preheader.lr.ph, label %.critedge.i

.preheader.lr.ph:                                 ; preds = %1
  %4 = getelementptr i8, ptr %0, i64 8
  %.val1519.pre = load ptr, ptr %4, align 8, !tbaa !9
  br label %.preheader

.preheader:                                       ; preds = %.preheader.lr.ph, %.critedge
  %.val35 = phi i32 [ %.val22, %.preheader.lr.ph ], [ %.val, %.critedge ]
  %.val1531 = phi ptr [ %.val1519.pre, %.preheader.lr.ph ], [ %.val1532, %.critedge ]
  %.val1519 = phi ptr [ %.val1519.pre, %.preheader.lr.ph ], [ %.val151929, %.critedge ]
  %indvars.iv26 = phi i64 [ 0, %.preheader.lr.ph ], [ %indvars.iv.next27, %.critedge ]
  %5 = getelementptr inbounds nuw ptr, ptr %.val1519, i64 %indvars.iv26
  %6 = load ptr, ptr %5, align 8, !tbaa !10
  %7 = getelementptr i8, ptr %6, i64 4
  %.val1720 = load i32, ptr %7, align 4, !tbaa !11
  %8 = icmp sgt i32 %.val1720, 0
  br i1 %8, label %.lr.ph, label %.critedge

.lr.ph:                                           ; preds = %.preheader, %14
  %.val1533 = phi ptr [ %.val15, %14 ], [ %.val1531, %.preheader ]
  %indvars.iv = phi i64 [ %indvars.iv.next, %14 ], [ 0, %.preheader ]
  %9 = phi ptr [ %16, %14 ], [ %6, %.preheader ]
  %10 = getelementptr i8, ptr %9, i64 8
  %.val18 = load ptr, ptr %10, align 8, !tbaa !13
  %11 = getelementptr inbounds nuw ptr, ptr %.val18, i64 %indvars.iv
  %12 = load ptr, ptr %11, align 8, !tbaa !10
  %.not = icmp eq ptr %12, null
  br i1 %.not, label %14, label %13

13:                                               ; preds = %.lr.ph
  tail call void @free(ptr noundef nonnull %12) #11
  %.val15.pre = load ptr, ptr %4, align 8, !tbaa !9
  br label %14

14:                                               ; preds = %13, %.lr.ph
  %.val15 = phi ptr [ %.val15.pre, %13 ], [ %.val1533, %.lr.ph ]
  %indvars.iv.next = add nuw nsw i64 %indvars.iv, 1
  %15 = getelementptr inbounds nuw ptr, ptr %.val15, i64 %indvars.iv26
  %16 = load ptr, ptr %15, align 8, !tbaa !10
  %17 = getelementptr i8, ptr %16, i64 4
  %.val17 = load i32, ptr %17, align 4, !tbaa !11
  %18 = sext i32 %.val17 to i64
  %19 = icmp slt i64 %indvars.iv.next, %18
  br i1 %19, label %.lr.ph, label %.critedge.loopexit, !llvm.loop !14

.critedge.loopexit:                               ; preds = %14
  %.val.pre = load i32, ptr %2, align 4, !tbaa !3
  br label %.critedge

.critedge:                                        ; preds = %.critedge.loopexit, %.preheader
  %.val = phi i32 [ %.val.pre, %.critedge.loopexit ], [ %.val35, %.preheader ]
  %.val1532 = phi ptr [ %.val15, %.critedge.loopexit ], [ %.val1531, %.preheader ]
  %.val151929 = phi ptr [ %.val15, %.critedge.loopexit ], [ %.val1519, %.preheader ]
  %indvars.iv.next27 = add nuw nsw i64 %indvars.iv26, 1
  %20 = sext i32 %.val to i64
  %21 = icmp slt i64 %indvars.iv.next27, %20
  br i1 %21, label %.preheader, label %._crit_edge, !llvm.loop !16

._crit_edge:                                      ; preds = %.critedge
  %22 = icmp sgt i32 %.val, 0
  br i1 %22, label %.lr.ph.i, label %.critedge.i

.lr.ph.i:                                         ; preds = %._crit_edge
  %23 = getelementptr i8, ptr %0, i64 8
  br label %24

24:                                               ; preds = %31, %.lr.ph.i
  %.val14.i = phi i32 [ %.val, %.lr.ph.i ], [ %.val.i, %31 ]
  %indvars.iv.i = phi i64 [ 0, %.lr.ph.i ], [ %indvars.iv.next.i, %31 ]
  %.val8.i = load ptr, ptr %23, align 8, !tbaa !9
  %25 = getelementptr inbounds nuw ptr, ptr %.val8.i, i64 %indvars.iv.i
  %26 = load ptr, ptr %25, align 8, !tbaa !10
  %.not.i = icmp eq ptr %26, null
  br i1 %.not.i, label %31, label %27

27:                                               ; preds = %24
  %28 = getelementptr inbounds nuw i8, ptr %26, i64 8
  %29 = load ptr, ptr %28, align 8, !tbaa !13
  %.not.i.i = icmp eq ptr %29, null
  br i1 %.not.i.i, label %Vec_PtrFree.exit.i, label %30

30:                                               ; preds = %27
  tail call void @free(ptr noundef nonnull %29) #11
  br label %Vec_PtrFree.exit.i

Vec_PtrFree.exit.i:                               ; preds = %30, %27
  tail call void @free(ptr noundef nonnull %26) #11
  %.val.pre.i = load i32, ptr %2, align 4, !tbaa !3
  br label %31

31:                                               ; preds = %Vec_PtrFree.exit.i, %24
  %.val.i = phi i32 [ %.val14.i, %24 ], [ %.val.pre.i, %Vec_PtrFree.exit.i ]
  %indvars.iv.next.i = add nuw nsw i64 %indvars.iv.i, 1
  %32 = sext i32 %.val.i to i64
  %33 = icmp slt i64 %indvars.iv.next.i, %32
  br i1 %33, label %24, label %.critedge.i, !llvm.loop !17

.critedge.i:                                      ; preds = %31, %1, %._crit_edge
  %34 = getelementptr inbounds nuw i8, ptr %0, i64 8
  %35 = load ptr, ptr %34, align 8, !tbaa !13
  %.not.i9.i = icmp eq ptr %35, null
  br i1 %.not.i9.i, label %Vec_VecFree.exit, label %36

36:                                               ; preds = %.critedge.i
  tail call void @free(ptr noundef nonnull %35) #11
  br label %Vec_VecFree.exit

Vec_VecFree.exit:                                 ; preds = %.critedge.i, %36
  tail call void @free(ptr noundef nonnull %0) #11
  ret void
}